target datalayout = "e-m:e-p270:32:32-p271:32:32-p272:64:64-i64:64-i128:128-f80:128-n8:16:32:64-S128"
target triple = "x86_64-pc-linux-gnu"

@rb_cFalseClass = external global i64, align 8
@rb_cNilClass = external global i64, align 8
@rb_cTrueClass = external global i64, align 8

; Function Attrs: inlinehint nounwind sspstrong uwtable
define internal i64 @special_singleton_class_of(i64 noundef %0) #4 {
  %2 = alloca i64, align 8
  %3 = alloca i64, align 8
  store i64 %0, ptr %3, align 8, !tbaa !7
  %4 = load i64, ptr %3, align 8, !tbaa !7
  switch i64 %4, label %11 [
    i64 4, label %5
    i64 0, label %7
    i64 20, label %9
  ]

5:                                                ; preds = %1
  %6 = load i64, ptr @rb_cNilClass, align 8, !tbaa !7
  store i64 %6, ptr %2, align 8
  br label %12

7:                                                ; preds = %1
  %8 = load i64, ptr @rb_cFalseClass, align 8, !tbaa !7
  store i64 %8, ptr %2, align 8
  br label %12

9:                                                ; preds = %1
  %10 = load i64, ptr @rb_cTrueClass, align 8, !tbaa !7
  store i64 %10, ptr %2, align 8
  br label %12

11:                                               ; preds = %1
  store i64 4, ptr %2, align 8
  br label %12

12:                                               ; preds = %11, %9, %7, %5
  %13 = load i64, ptr %2, align 8
  ret i64 %13
}

; Function Attrs: nounwind sspstrong uwtable
define hidden i64 @rb_special_singleton_class(i64 noundef %0) #0 {
  %2 = alloca i64, align 8
  store i64 %0, ptr %2, align 8, !tbaa !7
  %3 = load i64, ptr %2, align 8, !tbaa !7
  %4 = call i64 @special_singleton_class_of(i64 noundef %3)
  ret i64 %4
}