; Function Attrs: mustprogress nofree norecurse nosync nounwind sspstrong willreturn memory(read, argmem: none, inaccessiblemem: none) uwtable
define hidden i64 @rb_special_singleton_class(i64 noundef %0) local_unnamed_addr #9 {
  switch i64 %0, label %special_singleton_class_of.exit [
    i64 4, label %2
    i64 0, label %4
    i64 20, label %6
  ]

2:                                                ; preds = %1
  %3 = load i64, ptr @rb_cNilClass, align 8, !tbaa !29
  br label %special_singleton_class_of.exit

4:                                                ; preds = %1
  %5 = load i64, ptr @rb_cFalseClass, align 8, !tbaa !29
  br label %special_singleton_class_of.exit

6:                                                ; preds = %1
  %7 = load i64, ptr @rb_cTrueClass, align 8, !tbaa !29
  br label %special_singleton_class_of.exit

special_singleton_class_of.exit:                  ; preds = %1, %2, %4, %6
  %.0.i = phi i64 [ %7, %6 ], [ %5, %4 ], [ %3, %2 ], [ 4, %1 ]
  ret i64 %.0.i
}